; Function Attrs: nounwind uwtable
define noalias noundef ptr @Acec_DeriveBox(ptr noundef %0, ptr noundef %1, i32 noundef %2, i32 noundef %3, i32 noundef %4) local_unnamed_addr #0 {
  %6 = tail call ptr @Ree_ManComputeCuts(ptr noundef %0, ptr noundef null, i32 noundef %4) #21
  %7 = tail call ptr @Acec_TreeFindTrees(ptr noundef %0, ptr noundef %6, ptr noundef %1, i32 noundef %2, i32 noundef %3)
  %.not = icmp eq ptr %7, null
  br i1 %.not, label %Vec_WecFreeP.exit, label %8

8:                                                ; preds = %5
  %9 = getelementptr i8, ptr %7, i64 4
  %.val23 = load i32, ptr %9, align 4
  %10 = icmp sgt i32 %.val23, 0
  br i1 %10, label %11, label %.thread51.thread

11:                                               ; preds = %8
  %12 = getelementptr i8, ptr %7, i64 8
  %.val24 = load ptr, ptr %12, align 8
  %13 = tail call ptr @Acec_CreateBox(ptr noundef %0, ptr noundef %6, ptr noundef %.val24)
  tail call void @Acec_VerifyBoxLeaves(ptr noundef %13, ptr noundef %1)
  %.not60 = icmp eq ptr %13, null
  br i1 %.not60, label %.thread51.thread, label %14

14:                                               ; preds = %11
  %15 = getelementptr inbounds nuw i8, ptr %13, i64 8
  %16 = load ptr, ptr %15, align 8
  %17 = getelementptr i8, ptr %16, i64 4
  %.val = load i32, ptr %17, align 4
  %18 = icmp sgt i32 %.val, 0
  br i1 %18, label %.lr.ph.i, label %Vec_WecSizeSize.exit

.lr.ph.i:                                         ; preds = %14
  %19 = getelementptr i8, ptr %16, i64 8
  %.val8.i = load ptr, ptr %19, align 8
  %wide.trip.count.i = zext nneg i32 %.val to i64
  br label %20

20:                                               ; preds = %20, %.lr.ph.i
  %indvars.iv.i = phi i64 [ 0, %.lr.ph.i ], [ %indvars.iv.next.i, %20 ]
  %.011.i = phi i32 [ 0, %.lr.ph.i ], [ %22, %20 ]
  %21 = getelementptr %struct.Vec_Int_t_, ptr %.val8.i, i64 %indvars.iv.i, i32 1
  %.val9.i = load i32, ptr %21, align 4
  %22 = add nsw i32 %.val9.i, %.011.i
  %indvars.iv.next.i = add nuw nsw i64 %indvars.iv.i, 1
  %exitcond.not.i = icmp eq i64 %indvars.iv.next.i, %wide.trip.count.i
  br i1 %exitcond.not.i, label %Vec_WecSizeSize.exit, label %20, !llvm.loop !43

Vec_WecSizeSize.exit:                             ; preds = %20, %14
  %.0.lcssa.i = phi i32 [ 0, %14 ], [ %22, %20 ]
  %23 = getelementptr inbounds nuw i8, ptr %13, i64 16
  %24 = load ptr, ptr %23, align 8
  %25 = getelementptr i8, ptr %24, i64 4
  %.val.i25 = load i32, ptr %25, align 4
  %26 = icmp sgt i32 %.val.i25, 0
  br i1 %26, label %.lr.ph.i27, label %Vec_WecSizeSize.exit35

.lr.ph.i27:                                       ; preds = %Vec_WecSizeSize.exit
  %27 = getelementptr i8, ptr %24, i64 8
  %.val8.i28 = load ptr, ptr %27, align 8
  %wide.trip.count.i29 = zext nneg i32 %.val.i25 to i64
  br label %28

28:                                               ; preds = %28, %.lr.ph.i27
  %indvars.iv.i30 = phi i64 [ 0, %.lr.ph.i27 ], [ %indvars.iv.next.i33, %28 ]
  %.011.i31 = phi i32 [ 0, %.lr.ph.i27 ], [ %30, %28 ]
  %29 = getelementptr %struct.Vec_Int_t_, ptr %.val8.i28, i64 %indvars.iv.i30, i32 1
  %.val9.i32 = load i32, ptr %29, align 4
  %30 = add nsw i32 %.val9.i32, %.011.i31
  %indvars.iv.next.i33 = add nuw nsw i64 %indvars.iv.i30, 1
  %exitcond.not.i34 = icmp eq i64 %indvars.iv.next.i33, %wide.trip.count.i29
  br i1 %exitcond.not.i34, label %Vec_WecSizeSize.exit35, label %28, !llvm.loop !43

Vec_WecSizeSize.exit35:                           ; preds = %28, %Vec_WecSizeSize.exit
  %.0.lcssa.i26 = phi i32 [ 0, %Vec_WecSizeSize.exit ], [ %30, %28 ]
  %31 = getelementptr inbounds nuw i8, ptr %13, i64 24
  %32 = load ptr, ptr %31, align 8
  %33 = getelementptr i8, ptr %32, i64 4
  %.val.i36 = load i32, ptr %33, align 4
  %34 = icmp sgt i32 %.val.i36, 0
  br i1 %34, label %.lr.ph.i38, label %.loopexit

.lr.ph.i38:                                       ; preds = %Vec_WecSizeSize.exit35
  %35 = getelementptr i8, ptr %32, i64 8
  %.val8.i39 = load ptr, ptr %35, align 8
  %wide.trip.count.i40 = zext nneg i32 %.val.i36 to i64
  br label %36

36:                                               ; preds = %36, %.lr.ph.i38
  %indvars.iv.i41 = phi i64 [ 0, %.lr.ph.i38 ], [ %indvars.iv.next.i44, %36 ]
  %.011.i42 = phi i32 [ 0, %.lr.ph.i38 ], [ %38, %36 ]
  %37 = getelementptr %struct.Vec_Int_t_, ptr %.val8.i39, i64 %indvars.iv.i41, i32 1
  %.val9.i43 = load i32, ptr %37, align 4
  %38 = add nsw i32 %.val9.i43, %.011.i42
  %indvars.iv.next.i44 = add nuw nsw i64 %indvars.iv.i41, 1
  %exitcond.not.i45 = icmp eq i64 %indvars.iv.next.i44, %wide.trip.count.i40
  br i1 %exitcond.not.i45, label %.loopexit, label %36, !llvm.loop !43

.loopexit:                                        ; preds = %36, %Vec_WecSizeSize.exit35
  %.0.lcssa.i37 = phi i32 [ 0, %Vec_WecSizeSize.exit35 ], [ %38, %36 ]
  %39 = tail call i32 (ptr, ...) @printf(ptr noundef nonnull dereferenceable(1) @.str.23, i32 noundef 0, i32 noundef %.val, i32 noundef %.0.lcssa.i, i32 noundef %.0.lcssa.i26, i32 noundef %.0.lcssa.i37)
  %.not61 = icmp eq i32 %4, 0
  br i1 %.not61, label %.thread51.thread, label %40

40:                                               ; preds = %.loopexit
  tail call void @Acec_TreePrintBox(ptr noundef nonnull %13, ptr noundef %6)
  br label %.thread51.thread

.thread51.thread:                                 ; preds = %.loopexit, %40, %11, %8
  %.0495456 = phi ptr [ null, %8 ], [ null, %11 ], [ %13, %40 ], [ %13, %.loopexit ]
  %41 = load i32, ptr %7, align 8
  %42 = icmp sgt i32 %41, 0
  %43 = getelementptr inbounds nuw i8, ptr %7, i64 8
  %44 = load ptr, ptr %43, align 8
  br i1 %42, label %.lr.ph.i.i.i, label %._crit_edge.i.i.i

.lr.ph.i.i.i:                                     ; preds = %.thread51.thread
  %45 = zext nneg i32 %41 to i64
  br label %46

46:                                               ; preds = %50, %.lr.ph.i.i.i
  %indvars.iv.i.i.i = phi i64 [ 0, %.lr.ph.i.i.i ], [ %indvars.iv.next.i.i.i, %50 ]
  %47 = getelementptr inbounds nuw %struct.Vec_Int_t_, ptr %44, i64 %indvars.iv.i.i.i, i32 2
  %48 = load ptr, ptr %47, align 8
  %.not15.i.i.i = icmp eq ptr %48, null
  br i1 %.not15.i.i.i, label %50, label %49

49:                                               ; preds = %46
  tail call void @free(ptr noundef nonnull %48) #21
  store ptr null, ptr %47, align 8
  br label %50

50:                                               ; preds = %49, %46
  %indvars.iv.next.i.i.i = add nuw nsw i64 %indvars.iv.i.i.i, 1
  %exitcond.not = icmp eq i64 %indvars.iv.next.i.i.i, %45
  br i1 %exitcond.not, label %._crit_edge.i.i.i.thread, label %46, !llvm.loop !4

._crit_edge.i.i.i:                                ; preds = %.thread51.thread
  %.not.i.i.i = icmp eq ptr %44, null
  br i1 %.not.i.i.i, label %Vec_WecFree.exit.i, label %._crit_edge.i.i.i.thread

._crit_edge.i.i.i.thread:                         ; preds = %50, %._crit_edge.i.i.i
  tail call void @free(ptr noundef nonnull %44) #21
  br label %Vec_WecFree.exit.i

Vec_WecFree.exit.i:                               ; preds = %._crit_edge.i.i.i.thread, %._crit_edge.i.i.i
  tail call void @free(ptr noundef nonnull %7) #21
  br label %Vec_WecFreeP.exit

Vec_WecFreeP.exit:                                ; preds = %5, %Vec_WecFree.exit.i
  %.0495457 = phi ptr [ %.0495456, %Vec_WecFree.exit.i ], [ null, %5 ]
  %51 = getelementptr inbounds nuw i8, ptr %6, i64 8
  %52 = load ptr, ptr %51, align 8
  %.not.i = icmp eq ptr %52, null
  br i1 %.not.i, label %Vec_IntFree.exit, label %53

53:                                               ; preds = %Vec_WecFreeP.exit
  tail call void @free(ptr noundef nonnull %52) #21
  br label %Vec_IntFree.exit

Vec_IntFree.exit:                                 ; preds = %Vec_WecFreeP.exit, %53
  tail call void @free(ptr noundef nonnull %6) #21
  ret ptr %.0495457
}